target datalayout = "e-m:e-p270:32:32-p271:32:32-p272:64:64-i64:64-i128:128-f80:128-n8:16:32:64-S128"
target triple = "x86_64-pc-linux-gnu"

%"class.open3d::core::Dtype" = type { i32, i64, [16 x i8] }
%"class.__gnu_cxx::__normal_iterator" = type { ptr }
%"struct.std::_Vector_base" = type { %"struct.std::_Vector_base<open3d::core::Tensor, std::allocator<open3d::core::Tensor>>::_Vector_impl" }
%"struct.std::_Vector_base<open3d::core::Tensor, std::allocator<open3d::core::Tensor>>::_Vector_impl" = type { %"struct.std::_Vector_base<open3d::core::Tensor, std::allocator<open3d::core::Tensor>>::_Vector_impl_data" }
%"struct.std::_Vector_base<open3d::core::Tensor, std::allocator<open3d::core::Tensor>>::_Vector_impl_data" = type { ptr, ptr, ptr }
%"class.open3d::core::Tensor" = type { %"class.open3d::core::IsDevice", %"class.open3d::core::SizeVector", %"class.open3d::core::SizeVector", ptr, %"class.open3d::core::Dtype", %"class.std::shared_ptr" }
%"class.open3d::core::IsDevice" = type { ptr }
%"class.open3d::core::SizeVector" = type { %"class.open3d::core::SmallVector" }
%"class.open3d::core::SmallVector" = type { %"class.open3d::core::SmallVectorImpl", %"struct.open3d::core::SmallVectorStorage" }
%"class.open3d::core::SmallVectorImpl" = type { %"class.open3d::core::SmallVectorTemplateBase" }
%"class.open3d::core::SmallVectorTemplateBase" = type { %"class.open3d::core::SmallVectorTemplateCommon" }
%"class.open3d::core::SmallVectorTemplateCommon" = type { %"class.open3d::core::SmallVectorBase" }
%"class.open3d::core::SmallVectorBase" = type { ptr, i32, i32 }
%"struct.open3d::core::SmallVectorStorage" = type { [32 x i8] }
%"class.std::shared_ptr" = type { %"class.std::__shared_ptr" }
%"class.std::__shared_ptr" = type { ptr, %"class.std::__shared_count" }
%"class.std::__shared_count" = type { ptr }

; Function Attrs: mustprogress nounwind ssp uwtable
define linkonce_odr noundef i64 @_ZNK6open3d4core15SmallVectorBaseIjE4sizeEv(ptr noundef nonnull align 8 dereferenceable(16) %0) #2 comdat align 2 {
  %2 = alloca ptr, align 8
  store ptr %0, ptr %2, align 8, !tbaa !22
  %3 = load ptr, ptr %2, align 8
  %4 = getelementptr inbounds nuw %"class.open3d::core::SmallVectorBase", ptr %3, i32 0, i32 1
  %5 = load i32, ptr %4, align 8, !tbaa !24
  %6 = zext i32 %5 to i64
  ret i64 %6
}

; Function Attrs: mustprogress nounwind ssp uwtable
define linkonce_odr noundef nonnull align 8 dereferenceable(8) ptr @_ZNK9__gnu_cxx17__normal_iteratorIPKN6open3d4core6TensorESt6vectorIS3_SaIS3_EEE4baseEv(ptr noundef nonnull align 8 dereferenceable(8) %0) #2 comdat align 2 {
  %2 = alloca ptr, align 8
  store ptr %0, ptr %2, align 8, !tbaa !15
  %3 = load ptr, ptr %2, align 8
  %4 = getelementptr inbounds nuw %"class.__gnu_cxx::__normal_iterator", ptr %3, i32 0, i32 0
  ret ptr %4
}

; Function Attrs: mustprogress nounwind ssp uwtable
define linkonce_odr void @_ZN9__gnu_cxx17__normal_iteratorIPKN6open3d4core6TensorESt6vectorIS3_SaIS3_EEEC2ERKS5_(ptr noundef nonnull align 8 dereferenceable(8) %0, ptr noundef nonnull align 8 dereferenceable(8) %1) unnamed_addr #2 comdat align 2 {
  %3 = alloca ptr, align 8
  %4 = alloca ptr, align 8
  store ptr %0, ptr %3, align 8, !tbaa !15
  store ptr %1, ptr %4, align 8, !tbaa !19
  %5 = load ptr, ptr %3, align 8
  %6 = getelementptr inbounds nuw %"class.__gnu_cxx::__normal_iterator", ptr %5, i32 0, i32 0
  %7 = load ptr, ptr %4, align 8, !tbaa !19
  %8 = load ptr, ptr %7, align 8, !tbaa !11
  store ptr %8, ptr %6, align 8, !tbaa !17
  ret void
}

; Function Attrs: mustprogress nounwind ssp uwtable
define linkonce_odr noundef nonnull align 8 dereferenceable(8) ptr @_ZN9__gnu_cxx17__normal_iteratorIPKN6open3d4core6TensorESt6vectorIS3_SaIS3_EEEppEv(ptr noundef nonnull align 8 dereferenceable(8) %0) #2 comdat align 2 {
  %2 = alloca ptr, align 8
  store ptr %0, ptr %2, align 8, !tbaa !15
  %3 = load ptr, ptr %2, align 8
  %4 = getelementptr inbounds nuw %"class.__gnu_cxx::__normal_iterator", ptr %3, i32 0, i32 0
  %5 = load ptr, ptr %4, align 8, !tbaa !17
  %6 = getelementptr inbounds nuw %"class.open3d::core::Tensor", ptr %5, i32 1
  store ptr %6, ptr %4, align 8, !tbaa !17
  ret ptr %3
}

; Function Attrs: inlinehint mustprogress ssp uwtable
define linkonce_odr noundef i64 @_ZNK6open3d4core6Tensor7NumDimsEv(ptr noundef nonnull align 8 dereferenceable(160) %0) #4 comdat align 2 {
  %2 = alloca ptr, align 8
  store ptr %0, ptr %2, align 8, !tbaa !11
  %3 = load ptr, ptr %2, align 8
  %4 = getelementptr inbounds nuw %"class.open3d::core::Tensor", ptr %3, i32 0, i32 1
  %5 = call noundef i64 @_ZNK6open3d4core15SmallVectorBaseIjE4sizeEv(ptr noundef nonnull align 8 dereferenceable(16) %4)
  ret i64 %5
}

; Function Attrs: mustprogress nounwind ssp uwtable
define linkonce_odr noundef nonnull align 8 dereferenceable(160) ptr @_ZNK9__gnu_cxx17__normal_iteratorIPKN6open3d4core6TensorESt6vectorIS3_SaIS3_EEEdeEv(ptr noundef nonnull align 8 dereferenceable(8) %0) #2 comdat align 2 {
  %2 = alloca ptr, align 8
  store ptr %0, ptr %2, align 8, !tbaa !15
  %3 = load ptr, ptr %2, align 8
  %4 = getelementptr inbounds nuw %"class.__gnu_cxx::__normal_iterator", ptr %3, i32 0, i32 0
  %5 = load ptr, ptr %4, align 8, !tbaa !17
  ret ptr %5
}

; Function Attrs: inlinehint mustprogress nounwind ssp uwtable
define linkonce_odr noundef zeroext i1 @_ZN9__gnu_cxxneIPKN6open3d4core6TensorESt6vectorIS3_SaIS3_EEEEbRKNS_17__normal_iteratorIT_T0_EESE_(ptr noundef nonnull align 8 dereferenceable(8) %0, ptr noundef nonnull align 8 dereferenceable(8) %1) #3 comdat {
  %3 = alloca ptr, align 8
  %4 = alloca ptr, align 8
  store ptr %0, ptr %3, align 8, !tbaa !15
  store ptr %1, ptr %4, align 8, !tbaa !15
  %5 = load ptr, ptr %3, align 8, !tbaa !15
  %6 = call noundef nonnull align 8 dereferenceable(8) ptr @_ZNK9__gnu_cxx17__normal_iteratorIPKN6open3d4core6TensorESt6vectorIS3_SaIS3_EEE4baseEv(ptr noundef nonnull align 8 dereferenceable(8) %5) #28
  %7 = load ptr, ptr %6, align 8, !tbaa !11
  %8 = load ptr, ptr %4, align 8, !tbaa !15
  %9 = call noundef nonnull align 8 dereferenceable(8) ptr @_ZNK9__gnu_cxx17__normal_iteratorIPKN6open3d4core6TensorESt6vectorIS3_SaIS3_EEE4baseEv(ptr noundef nonnull align 8 dereferenceable(8) %8) #28
  %10 = load ptr, ptr %9, align 8, !tbaa !11
  %11 = icmp ne ptr %7, %10
  ret i1 %11
}

; Function Attrs: mustprogress nounwind ssp uwtable
define linkonce_odr ptr @_ZNKSt6vectorIN6open3d4core6TensorESaIS2_EE3endEv(ptr noundef nonnull align 8 dereferenceable(24) %0) #2 comdat align 2 {
  %2 = alloca %"class.__gnu_cxx::__normal_iterator", align 8
  %3 = alloca ptr, align 8
  store ptr %0, ptr %3, align 8, !tbaa !4
  %4 = load ptr, ptr %3, align 8
  %5 = getelementptr inbounds nuw %"struct.std::_Vector_base", ptr %4, i32 0, i32 0
  %6 = getelementptr inbounds nuw %"struct.std::_Vector_base<open3d::core::Tensor, std::allocator<open3d::core::Tensor>>::_Vector_impl_data", ptr %5, i32 0, i32 1
  call void @_ZN9__gnu_cxx17__normal_iteratorIPKN6open3d4core6TensorESt6vectorIS3_SaIS3_EEEC2ERKS5_(ptr noundef nonnull align 8 dereferenceable(8) %2, ptr noundef nonnull align 8 dereferenceable(8) %6) #28
  %7 = getelementptr inbounds nuw %"class.__gnu_cxx::__normal_iterator", ptr %2, i32 0, i32 0
  %8 = load ptr, ptr %7, align 8
  ret ptr %8
}

; Function Attrs: mustprogress nounwind ssp uwtable
define linkonce_odr ptr @_ZNKSt6vectorIN6open3d4core6TensorESaIS2_EE5beginEv(ptr noundef nonnull align 8 dereferenceable(24) %0) #2 comdat align 2 {
  %2 = alloca %"class.__gnu_cxx::__normal_iterator", align 8
  %3 = alloca ptr, align 8
  store ptr %0, ptr %3, align 8, !tbaa !4
  %4 = load ptr, ptr %3, align 8
  %5 = getelementptr inbounds nuw %"struct.std::_Vector_base", ptr %4, i32 0, i32 0
  %6 = getelementptr inbounds nuw %"struct.std::_Vector_base<open3d::core::Tensor, std::allocator<open3d::core::Tensor>>::_Vector_impl_data", ptr %5, i32 0, i32 0
  call void @_ZN9__gnu_cxx17__normal_iteratorIPKN6open3d4core6TensorESt6vectorIS3_SaIS3_EEEC2ERKS5_(ptr noundef nonnull align 8 dereferenceable(8) %2, ptr noundef nonnull align 8 dereferenceable(8) %6) #28
  %7 = getelementptr inbounds nuw %"class.__gnu_cxx::__normal_iterator", ptr %2, i32 0, i32 0
  %8 = load ptr, ptr %7, align 8
  ret ptr %8
}

; Function Attrs: mustprogress ssp uwtable
define noundef zeroext i1 @_ZN6open3d4core25AdvancedIndexPreprocessor22IsIndexSplittedBySliceERKSt6vectorINS0_6TensorESaIS3_EE(ptr noundef nonnull align 8 dereferenceable(24) %0) #0 align 2 {
  %2 = alloca i1, align 1
  %3 = alloca ptr, align 8
  %4 = alloca i8, align 1
  %5 = alloca i8, align 1
  %6 = alloca ptr, align 8
  %7 = alloca %"class.__gnu_cxx::__normal_iterator", align 8
  %8 = alloca %"class.__gnu_cxx::__normal_iterator", align 8
  %9 = alloca i32, align 4
  %10 = alloca ptr, align 8
  store ptr %0, ptr %3, align 8, !tbaa !4
  call void @llvm.lifetime.start.p0(i64 1, ptr %4) #28
  store i8 0, ptr %4, align 1, !tbaa !9
  call void @llvm.lifetime.start.p0(i64 1, ptr %5) #28
  store i8 0, ptr %5, align 1, !tbaa !9
  call void @llvm.lifetime.start.p0(i64 8, ptr %6) #28
  %11 = load ptr, ptr %3, align 8, !tbaa !4
  store ptr %11, ptr %6, align 8, !tbaa !4
  call void @llvm.lifetime.start.p0(i64 8, ptr %7) #28
  %12 = load ptr, ptr %6, align 8, !tbaa !4
  %13 = call ptr @_ZNKSt6vectorIN6open3d4core6TensorESaIS2_EE5beginEv(ptr noundef nonnull align 8 dereferenceable(24) %12) #28
  %14 = getelementptr inbounds nuw %"class.__gnu_cxx::__normal_iterator", ptr %7, i32 0, i32 0
  store ptr %13, ptr %14, align 8
  call void @llvm.lifetime.start.p0(i64 8, ptr %8) #28
  %15 = load ptr, ptr %6, align 8, !tbaa !4
  %16 = call ptr @_ZNKSt6vectorIN6open3d4core6TensorESaIS2_EE3endEv(ptr noundef nonnull align 8 dereferenceable(24) %15) #28
  %17 = getelementptr inbounds nuw %"class.__gnu_cxx::__normal_iterator", ptr %8, i32 0, i32 0
  store ptr %16, ptr %17, align 8
  br label %18

18:                                               ; preds = %44, %1
  %19 = call noundef zeroext i1 @_ZN9__gnu_cxxneIPKN6open3d4core6TensorESt6vectorIS3_SaIS3_EEEEbRKNS_17__normal_iteratorIT_T0_EESE_(ptr noundef nonnull align 8 dereferenceable(8) %7, ptr noundef nonnull align 8 dereferenceable(8) %8) #28
  br i1 %19, label %21, label %20

20:                                               ; preds = %18
  store i32 2, ptr %9, align 4
  br label %46

21:                                               ; preds = %18
  call void @llvm.lifetime.start.p0(i64 8, ptr %10) #28
  %22 = call noundef nonnull align 8 dereferenceable(160) ptr @_ZNK9__gnu_cxx17__normal_iteratorIPKN6open3d4core6TensorESt6vectorIS3_SaIS3_EEEdeEv(ptr noundef nonnull align 8 dereferenceable(8) %7) #28
  store ptr %22, ptr %10, align 8, !tbaa !11
  %23 = load ptr, ptr %10, align 8, !tbaa !11
  %24 = call noundef i64 @_ZNK6open3d4core6Tensor7NumDimsEv(ptr noundef nonnull align 8 dereferenceable(160) %23)
  %25 = icmp eq i64 %24, 0
  br i1 %25, label %26, label %31

26:                                               ; preds = %21
  %27 = load i8, ptr %4, align 1, !tbaa !9, !range !13, !noundef !14
  %28 = trunc i8 %27 to i1
  br i1 %28, label %29, label %30

29:                                               ; preds = %26
  store i8 1, ptr %5, align 1, !tbaa !9
  br label %30

30:                                               ; preds = %29, %26
  br label %40

31:                                               ; preds = %21
  %32 = load i8, ptr %5, align 1, !tbaa !9, !range !13, !noundef !14
  %33 = trunc i8 %32 to i1
  br i1 %33, label %34, label %35

34:                                               ; preds = %31
  store i1 true, ptr %2, align 1
  store i32 1, ptr %9, align 4
  br label %41

35:                                               ; preds = %31
  %36 = load i8, ptr %4, align 1, !tbaa !9, !range !13, !noundef !14
  %37 = trunc i8 %36 to i1
  br i1 %37, label %39, label %38

38:                                               ; preds = %35
  store i8 1, ptr %4, align 1, !tbaa !9
  br label %39

39:                                               ; preds = %38, %35
  br label %40

40:                                               ; preds = %39, %30
  store i32 0, ptr %9, align 4
  br label %41

41:                                               ; preds = %40, %34
  call void @llvm.lifetime.end.p0(i64 8, ptr %10) #28
  %42 = load i32, ptr %9, align 4
  switch i32 %42, label %46 [
    i32 0, label %43
  ]

43:                                               ; preds = %41
  br label %44

44:                                               ; preds = %43
  %45 = call noundef nonnull align 8 dereferenceable(8) ptr @_ZN9__gnu_cxx17__normal_iteratorIPKN6open3d4core6TensorESt6vectorIS3_SaIS3_EEEppEv(ptr noundef nonnull align 8 dereferenceable(8) %7) #28
  br label %18

46:                                               ; preds = %41, %20
  call void @llvm.lifetime.end.p0(i64 8, ptr %8) #28
  call void @llvm.lifetime.end.p0(i64 8, ptr %7) #28
  call void @llvm.lifetime.end.p0(i64 8, ptr %6) #28
  %47 = load i32, ptr %9, align 4
  switch i32 %47, label %49 [
    i32 2, label %48
  ]

48:                                               ; preds = %46
  store i1 false, ptr %2, align 1
  store i32 1, ptr %9, align 4
  br label %49

49:                                               ; preds = %48, %46
  call void @llvm.lifetime.end.p0(i64 1, ptr %5) #28
  call void @llvm.lifetime.end.p0(i64 1, ptr %4) #28
  %50 = load i1, ptr %2, align 1
  ret i1 %50
}