; Function Attrs: mustprogress nofree norecurse nosync nounwind ssp willreturn memory(read, inaccessiblemem: none) uwtable
define noundef zeroext i1 @_ZN6open3d4core25AdvancedIndexPreprocessor22IsIndexSplittedBySliceERKSt6vectorINS0_6TensorESaIS3_EE(ptr noundef nonnull readonly align 8 captures(none) dereferenceable(24) %0) local_unnamed_addr #0 align 2 {
  %2 = load ptr, ptr %0, align 8, !tbaa !4
  %3 = getelementptr inbounds nuw i8, ptr %0, i64 8
  %4 = load ptr, ptr %3, align 8, !tbaa !4
  %.not = icmp eq ptr %2, %4
  br i1 %.not, label %.critedge, label %.lr.ph

.lr.ph:                                           ; preds = %1, %8
  %.01225 = phi i1 [ %.214, %8 ], [ false, %1 ]
  %.01524 = phi i1 [ %.217, %8 ], [ false, %1 ]
  %.sroa.020.023 = phi ptr [ %11, %8 ], [ %2, %1 ]
  %5 = getelementptr inbounds nuw i8, ptr %.sroa.020.023, i64 16
  %6 = load i32, ptr %5, align 8, !tbaa !9
  %7 = icmp eq i32 %6, 0
  %not. = xor i1 %.01524, true
  %cond1 = select i1 %7, i1 true, i1 %not.
  br i1 %cond1, label %8, label %.critedge.loopexit

8:                                                ; preds = %.lr.ph
  %9 = select i1 %7, i1 true, i1 %.01524
  %not.28 = xor i1 %9, true
  %.214 = select i1 %not.28, i1 true, i1 %.01225
  %10 = select i1 %7, i1 %.01225, i1 false
  %.217 = select i1 %10, i1 true, i1 %.01524
  %11 = getelementptr inbounds nuw i8, ptr %.sroa.020.023, i64 160
  %.not29 = icmp eq ptr %11, %4
  br i1 %.not29, label %.critedge.loopexit, label %.lr.ph

.critedge.loopexit:                               ; preds = %8, %.lr.ph
  %.lcssa.ph = xor i1 %cond1, true
  br label %.critedge

.critedge:                                        ; preds = %.critedge.loopexit, %1
  %.lcssa = phi i1 [ false, %1 ], [ %.lcssa.ph, %.critedge.loopexit ]
  ret i1 %.lcssa
}